; ModuleID = '20/342.c'
source_filename = "20/342.c"
target datalayout = "e-m:e-p270:32:32-p271:32:32-p272:64:64-i64:64-f80:128-n8:16:32:64-S128"
target triple = "x86_64-pc-linux-gnu"

@.str = private unnamed_addr constant [2 x i8] c" \00", align 1
@.str.1 = private unnamed_addr constant [4 x i8] c"%s\0A\00", align 1

; Function Attrs: noinline nounwind uwtable
define dso_local void @main() #0 {
  %1 = alloca [1024 x i8], align 16
  %2 = alloca [512 x i8], align 16
  %3 = alloca [512 x i8], align 16
  %4 = alloca i8*, align 8
  %5 = alloca i32, align 4
  %6 = alloca i32, align 4
  %7 = alloca i8, align 1
  %8 = alloca i32, align 4
  %9 = alloca i32, align 4
  br label %10

10:                                               ; preds = %102, %0
  %11 = getelementptr inbounds [1024 x i8], [1024 x i8]* %1, i64 0, i64 0
  %12 = call i32 (i8*, ...) bitcast (i32 (...)* @gets to i32 (i8*, ...)*)(i8* %11)
  %13 = sext i32 %12 to i64
  %14 = inttoptr i64 %13 to i8*
  %15 = icmp ne i8* %14, null
  br i1 %15, label %16, label %105

16:                                               ; preds = %10
  %17 = getelementptr inbounds [1024 x i8], [1024 x i8]* %1, i64 0, i64 0
  %18 = call i8* @strtok(i8* %17, i8* getelementptr inbounds ([2 x i8], [2 x i8]* @.str, i64 0, i64 0)) #4
  store i8* %18, i8** %4, align 8
  %19 = getelementptr inbounds [512 x i8], [512 x i8]* %2, i64 0, i64 0
  %20 = load i8*, i8** %4, align 8
  %21 = call i8* @strcpy(i8* %19, i8* %20) #4
  %22 = call i8* @strtok(i8* null, i8* getelementptr inbounds ([2 x i8], [2 x i8]* @.str, i64 0, i64 0)) #4
  store i8* %22, i8** %4, align 8
  %23 = getelementptr inbounds [512 x i8], [512 x i8]* %3, i64 0, i64 0
  %24 = load i8*, i8** %4, align 8
  %25 = call i8* @strcpy(i8* %23, i8* %24) #4
  store i32 0, i32* %5, align 4
  %26 = getelementptr inbounds [512 x i8], [512 x i8]* %2, i64 0, i64 0
  %27 = load i8, i8* %26, align 16
  store i8 %27, i8* %7, align 1
  store i32 1, i32* %6, align 4
  br label %28

28:                                               ; preds = %51, %16
  %29 = load i32, i32* %6, align 4
  %30 = sext i32 %29 to i64
  %31 = getelementptr inbounds [512 x i8], [512 x i8]* %2, i64 0, i64 %30
  %32 = load i8, i8* %31, align 1
  %33 = sext i8 %32 to i32
  %34 = icmp ne i32 %33, 0
  br i1 %34, label %35, label %54

35:                                               ; preds = %28
  %36 = load i32, i32* %6, align 4
  %37 = sext i32 %36 to i64
  %38 = getelementptr inbounds [512 x i8], [512 x i8]* %2, i64 0, i64 %37
  %39 = load i8, i8* %38, align 1
  %40 = sext i8 %39 to i32
  %41 = load i8, i8* %7, align 1
  %42 = sext i8 %41 to i32
  %43 = icmp sgt i32 %40, %42
  br i1 %43, label %44, label %50

44:                                               ; preds = %35
  %45 = load i32, i32* %6, align 4
  %46 = sext i32 %45 to i64
  %47 = getelementptr inbounds [512 x i8], [512 x i8]* %2, i64 0, i64 %46
  %48 = load i8, i8* %47, align 1
  store i8 %48, i8* %7, align 1
  %49 = load i32, i32* %6, align 4
  store i32 %49, i32* %5, align 4
  br label %50

50:                                               ; preds = %44, %35
  br label %51

51:                                               ; preds = %50
  %52 = load i32, i32* %6, align 4
  %53 = add nsw i32 %52, 1
  store i32 %53, i32* %6, align 4
  br label %28

54:                                               ; preds = %28
  %55 = getelementptr inbounds [512 x i8], [512 x i8]* %2, i64 0, i64 0
  %56 = call i64 @strlen(i8* %55) #5
  %57 = load i32, i32* %5, align 4
  %58 = sext i32 %57 to i64
  %59 = sub i64 %56, %58
  %60 = trunc i64 %59 to i32
  store i32 %60, i32* %8, align 4
  %61 = getelementptr inbounds [512 x i8], [512 x i8]* %2, i64 0, i64 0
  %62 = call i64 @strlen(i8* %61) #5
  %63 = add i64 %62, 3
  %64 = trunc i64 %63 to i32
  store i32 %64, i32* %9, align 4
  store i32 1, i32* %6, align 4
  br label %65

65:                                               ; preds = %80, %54
  %66 = load i32, i32* %6, align 4
  %67 = load i32, i32* %8, align 4
  %68 = icmp sle i32 %66, %67
  br i1 %68, label %69, label %83

69:                                               ; preds = %65
  %70 = load i32, i32* %9, align 4
  %71 = sub nsw i32 %70, 3
  %72 = sext i32 %71 to i64
  %73 = getelementptr inbounds [512 x i8], [512 x i8]* %2, i64 0, i64 %72
  %74 = load i8, i8* %73, align 1
  %75 = load i32, i32* %9, align 4
  %76 = sext i32 %75 to i64
  %77 = getelementptr inbounds [512 x i8], [512 x i8]* %2, i64 0, i64 %76
  store i8 %74, i8* %77, align 1
  %78 = load i32, i32* %9, align 4
  %79 = add nsw i32 %78, -1
  store i32 %79, i32* %9, align 4
  br label %80

80:                                               ; preds = %69
  %81 = load i32, i32* %6, align 4
  %82 = add nsw i32 %81, 1
  store i32 %82, i32* %6, align 4
  br label %65

83:                                               ; preds = %65
  %84 = load i32, i32* %5, align 4
  %85 = add nsw i32 %84, 1
  store i32 %85, i32* %9, align 4
  store i32 0, i32* %6, align 4
  br label %86

86:                                               ; preds = %99, %83
  %87 = load i32, i32* %6, align 4
  %88 = icmp sle i32 %87, 2
  br i1 %88, label %89, label %102

89:                                               ; preds = %86
  %90 = load i32, i32* %6, align 4
  %91 = sext i32 %90 to i64
  %92 = getelementptr inbounds [512 x i8], [512 x i8]* %3, i64 0, i64 %91
  %93 = load i8, i8* %92, align 1
  %94 = load i32, i32* %9, align 4
  %95 = sext i32 %94 to i64
  %96 = getelementptr inbounds [512 x i8], [512 x i8]* %2, i64 0, i64 %95
  store i8 %93, i8* %96, align 1
  %97 = load i32, i32* %9, align 4
  %98 = add nsw i32 %97, 1
  store i32 %98, i32* %9, align 4
  br label %99

99:                                               ; preds = %89
  %100 = load i32, i32* %6, align 4
  %101 = add nsw i32 %100, 1
  store i32 %101, i32* %6, align 4
  br label %86

102:                                              ; preds = %86
  %103 = getelementptr inbounds [512 x i8], [512 x i8]* %2, i64 0, i64 0
  %104 = call i32 (i8*, ...) @printf(i8* getelementptr inbounds ([4 x i8], [4 x i8]* @.str.1, i64 0, i64 0), i8* %103)
  br label %10

105:                                              ; preds = %10
  ret void
}

declare dso_local i32 @gets(...) #1

; Function Attrs: nounwind
declare dso_local i8* @strtok(i8*, i8*) #2

; Function Attrs: nounwind
declare dso_local i8* @strcpy(i8*, i8*) #2

; Function Attrs: nounwind readonly
declare dso_local i64 @strlen(i8*) #3

declare dso_local i32 @printf(i8*, ...) #1


!llvm.module.flags = !{!0}
!llvm.ident = !{!1}

!0 = !{i32 1, !"wchar_size", i32 4}
!1 = !{!"clang version 10.0.0-4ubuntu1 "}
